; Function Attrs: mustprogress uwtable
define hidden void @_ZN4cvc58internal6theory11quantifiers19QuantifiersRewriter8mkForallERKSt6vectorINS0_12NodeTemplateILb1EEESaIS6_EES6_b(ptr noalias sret(%"class.cvc5::internal::NodeTemplate") align 8 %agg.result, ptr nocapture noundef nonnull readonly align 8 dereferenceable(24) %args, ptr nocapture noundef readonly %body, i1 noundef zeroext %marked) local_unnamed_addr #3 align 2 personality ptr @__gxx_personality_v0 {
entry:
  %iplc = alloca %"class.std::vector", align 8
  %agg.tmp = alloca %"class.cvc5::internal::NodeTemplate", align 8
  call void @llvm.memset.p0.i64(ptr noundef nonnull align 8 dereferenceable(24) %iplc, i8 0, i64 24, i1 false)
  %0 = load ptr, ptr %body, align 8
  store ptr %0, ptr %agg.tmp, align 8
  %bf.load.i.i = load i64, ptr %0, align 8
  %bf.lshr.i.i = lshr i64 %bf.load.i.i, 40
  %1 = trunc i64 %bf.lshr.i.i to i32
  %bf.cast.i.i = and i32 %1, 1048575
  %cmp.i.i = icmp ult i32 %bf.cast.i.i, 1048574
  br i1 %cmp.i.i, label %if.then.i.i, label %if.else.i.i

if.then.i.i:                                      ; preds = %entry
  %bf.value.i.i = add i64 %bf.load.i.i, 1099511627776
  %bf.shl.i.i = and i64 %bf.value.i.i, 1152920405095219200
  %bf.clear7.i.i = and i64 %bf.load.i.i, -1152920405095219201
  %bf.set.i.i = or disjoint i64 %bf.shl.i.i, %bf.clear7.i.i
  store i64 %bf.set.i.i, ptr %0, align 8
  br label %invoke.cont

if.else.i.i:                                      ; preds = %entry
  %cmp12.i.i = icmp eq i32 %bf.cast.i.i, 1048574
  br i1 %cmp12.i.i, label %if.then13.i.i, label %invoke.cont

if.then13.i.i:                                    ; preds = %if.else.i.i
  %bf.set23.i.i = or i64 %bf.load.i.i, 1152920405095219200
  store i64 %bf.set23.i.i, ptr %0, align 8
  invoke void @_ZN4cvc58internal4expr9NodeValue20markRefCountMaxedOutEv(ptr noundef nonnull align 8 dereferenceable(16) %0)
          to label %invoke.cont unwind label %lpad

invoke.cont:                                      ; preds = %if.else.i.i, %if.then.i.i, %if.then13.i.i
  invoke void @_ZN4cvc58internal6theory11quantifiers19QuantifiersRewriter8mkForallERKSt6vectorINS0_12NodeTemplateILb1EEESaIS6_EES6_RS8_b(ptr sret(%"class.cvc5::internal::NodeTemplate") align 8 %agg.result, ptr noundef nonnull align 8 dereferenceable(24) %args, ptr noundef nonnull %agg.tmp, ptr noundef nonnull align 8 dereferenceable(24) %iplc, i1 noundef zeroext %marked)
          to label %invoke.cont2 unwind label %lpad1

invoke.cont2:                                     ; preds = %invoke.cont
  %2 = load ptr, ptr %agg.tmp, align 8
  %bf.load.i.i2 = load i64, ptr %2, align 8
  %3 = and i64 %bf.load.i.i2, 1152920405095219200
  %cmp.not.i.i = icmp eq i64 %3, 1152920405095219200
  br i1 %cmp.not.i.i, label %_ZN4cvc58internal12NodeTemplateILb1EED2Ev.exit, label %if.then.i.i3

if.then.i.i3:                                     ; preds = %invoke.cont2
  %bf.value.i.i4 = add i64 %bf.load.i.i2, 1152920405095219200
  %bf.shl.i.i5 = and i64 %bf.value.i.i4, 1152920405095219200
  %bf.clear7.i.i6 = and i64 %bf.load.i.i2, -1152920405095219201
  %bf.set.i.i7 = or disjoint i64 %bf.shl.i.i5, %bf.clear7.i.i6
  store i64 %bf.set.i.i7, ptr %2, align 8
  %cmp12.i.i8 = icmp eq i64 %bf.shl.i.i5, 0
  br i1 %cmp12.i.i8, label %if.then13.i.i9, label %_ZN4cvc58internal12NodeTemplateILb1EED2Ev.exit

if.then13.i.i9:                                   ; preds = %if.then.i.i3
  invoke void @_ZN4cvc58internal4expr9NodeValue15markForDeletionEv(ptr noundef nonnull align 8 dereferenceable(16) %2)
          to label %_ZN4cvc58internal12NodeTemplateILb1EED2Ev.exit unwind label %terminate.lpad.i

terminate.lpad.i:                                 ; preds = %if.then13.i.i9
  %4 = landingpad { ptr, i32 }
          catch ptr null
  %5 = extractvalue { ptr, i32 } %4, 0
  call void @__clang_call_terminate(ptr %5) #20
  unreachable

_ZN4cvc58internal12NodeTemplateILb1EED2Ev.exit:   ; preds = %invoke.cont2, %if.then.i.i3, %if.then13.i.i9
  %6 = load ptr, ptr %iplc, align 8
  %_M_finish.i = getelementptr inbounds i8, ptr %iplc, i64 8
  %7 = load ptr, ptr %_M_finish.i, align 8
  %cmp.not3.i.i.i.i = icmp eq ptr %6, %7
  br i1 %cmp.not3.i.i.i.i, label %invoke.cont.i, label %for.body.i.i.i.i

for.body.i.i.i.i:                                 ; preds = %_ZN4cvc58internal12NodeTemplateILb1EED2Ev.exit, %_ZSt8_DestroyIN4cvc58internal12NodeTemplateILb1EEEEvPT_.exit.i.i.i.i
  %__first.addr.04.i.i.i.i = phi ptr [ %incdec.ptr.i.i.i.i, %_ZSt8_DestroyIN4cvc58internal12NodeTemplateILb1EEEEvPT_.exit.i.i.i.i ], [ %6, %_ZN4cvc58internal12NodeTemplateILb1EED2Ev.exit ]
  %8 = load ptr, ptr %__first.addr.04.i.i.i.i, align 8
  %bf.load.i.i.i.i.i.i.i = load i64, ptr %8, align 8
  %9 = and i64 %bf.load.i.i.i.i.i.i.i, 1152920405095219200
  %cmp.not.i.i.i.i.i.i.i = icmp eq i64 %9, 1152920405095219200
  br i1 %cmp.not.i.i.i.i.i.i.i, label %_ZSt8_DestroyIN4cvc58internal12NodeTemplateILb1EEEEvPT_.exit.i.i.i.i, label %if.then.i.i.i.i.i.i.i

if.then.i.i.i.i.i.i.i:                            ; preds = %for.body.i.i.i.i
  %bf.value.i.i.i.i.i.i.i = add i64 %bf.load.i.i.i.i.i.i.i, 1152920405095219200
  %bf.shl.i.i.i.i.i.i.i = and i64 %bf.value.i.i.i.i.i.i.i, 1152920405095219200
  %bf.clear7.i.i.i.i.i.i.i = and i64 %bf.load.i.i.i.i.i.i.i, -1152920405095219201
  %bf.set.i.i.i.i.i.i.i = or disjoint i64 %bf.shl.i.i.i.i.i.i.i, %bf.clear7.i.i.i.i.i.i.i
  store i64 %bf.set.i.i.i.i.i.i.i, ptr %8, align 8
  %cmp12.i.i.i.i.i.i.i = icmp eq i64 %bf.shl.i.i.i.i.i.i.i, 0
  br i1 %cmp12.i.i.i.i.i.i.i, label %if.then13.i.i.i.i.i.i.i, label %_ZSt8_DestroyIN4cvc58internal12NodeTemplateILb1EEEEvPT_.exit.i.i.i.i

if.then13.i.i.i.i.i.i.i:                          ; preds = %if.then.i.i.i.i.i.i.i
  invoke void @_ZN4cvc58internal4expr9NodeValue15markForDeletionEv(ptr noundef nonnull align 8 dereferenceable(16) %8)
          to label %_ZSt8_DestroyIN4cvc58internal12NodeTemplateILb1EEEEvPT_.exit.i.i.i.i unwind label %terminate.lpad.i.i.i.i.i.i

terminate.lpad.i.i.i.i.i.i:                       ; preds = %if.then13.i.i.i.i.i.i.i
  %10 = landingpad { ptr, i32 }
          catch ptr null
  %11 = extractvalue { ptr, i32 } %10, 0
  call void @__clang_call_terminate(ptr %11) #20
  unreachable

_ZSt8_DestroyIN4cvc58internal12NodeTemplateILb1EEEEvPT_.exit.i.i.i.i: ; preds = %if.then13.i.i.i.i.i.i.i, %if.then.i.i.i.i.i.i.i, %for.body.i.i.i.i
  %incdec.ptr.i.i.i.i = getelementptr inbounds i8, ptr %__first.addr.04.i.i.i.i, i64 8
  %cmp.not.i.i.i.i = icmp eq ptr %incdec.ptr.i.i.i.i, %7
  br i1 %cmp.not.i.i.i.i, label %invoke.contthread-pre-split.i, label %for.body.i.i.i.i, !llvm.loop !40

invoke.contthread-pre-split.i:                    ; preds = %_ZSt8_DestroyIN4cvc58internal12NodeTemplateILb1EEEEvPT_.exit.i.i.i.i
  %.pr.i = load ptr, ptr %iplc, align 8
  br label %invoke.cont.i

invoke.cont.i:                                    ; preds = %invoke.contthread-pre-split.i, %_ZN4cvc58internal12NodeTemplateILb1EED2Ev.exit
  %12 = phi ptr [ %.pr.i, %invoke.contthread-pre-split.i ], [ %6, %_ZN4cvc58internal12NodeTemplateILb1EED2Ev.exit ]
  %tobool.not.i.i.i = icmp eq ptr %12, null
  br i1 %tobool.not.i.i.i, label %_ZNSt6vectorIN4cvc58internal12NodeTemplateILb1EEESaIS3_EED2Ev.exit, label %if.then.i.i.i

if.then.i.i.i:                                    ; preds = %invoke.cont.i
  call void @_ZdlPv(ptr noundef nonnull %12) #24
  br label %_ZNSt6vectorIN4cvc58internal12NodeTemplateILb1EEESaIS3_EED2Ev.exit

_ZNSt6vectorIN4cvc58internal12NodeTemplateILb1EEESaIS3_EED2Ev.exit: ; preds = %invoke.cont.i, %if.then.i.i.i
  ret void

lpad:                                             ; preds = %if.then13.i.i
  %13 = landingpad { ptr, i32 }
          cleanup
  br label %ehcleanup

lpad1:                                            ; preds = %invoke.cont
  %14 = landingpad { ptr, i32 }
          cleanup
  call void @_ZN4cvc58internal12NodeTemplateILb1EED2Ev(ptr noundef nonnull align 8 dereferenceable(8) %agg.tmp) #21
  br label %ehcleanup

ehcleanup:                                        ; preds = %lpad1, %lpad
  %.pn = phi { ptr, i32 } [ %14, %lpad1 ], [ %13, %lpad ]
  call void @_ZNSt6vectorIN4cvc58internal12NodeTemplateILb1EEESaIS3_EED2Ev(ptr noundef nonnull align 8 dereferenceable(24) %iplc) #21
  resume { ptr, i32 } %.pn
}